ccopy_reg
_reconstructor
p0
(cautodict
AutoDict
p1
c__builtin__
dict
p2
(dp3
S'freevariables'
p4
g0
(g1
g2
(dp5
S'c_{attach}'
p6
cnumpy.core.multiarray
_reconstruct
p7
(cnumpy
ndarray
p8
(I0
tp9
S'b'
p10
tp11
Rp12
(I1
(tcnumpy
dtype
p13
(S'f8'
p14
I0
I1
tp15
Rp16
(I3
S'<'
p17
NNNI-1
I-1
I0
tp18
bI00
S'\x0f\xeb\x93R\x1e\xf5\x05@'
p19
tp20
bsS'f_{watt}'
p21
cnumpy.core.multiarray
scalar
p22
(g16
S'4\xb5\x06\x00\x00\x00\xf0?'
p23
tp24
Rp25
sS'w_{t_n}'
p26
g7
(g8
(I0
tp27
g10
tp28
Rp29
(I1
(tg16
I00
S'\xc7G\x87q!W\xd4?'
p30
tp31
bsS'L_{h_{max}}'
p32
g7
(g8
(I0
tp33
g10
tp34
Rp35
(I1
(tg16
I00
S'<\x07\xe0M\xa3:\x12A'
p36
tp37
bsS'V_{stall}'
p38
g7
(g8
(I0
tp39
g10
tp40
Rp41
(I1
(I2
I1
tp42
g16
I00
S'\x9el\xf3\xff\xff\xff]@\x9el\xf3\xff\xff\xff]@'
p43
tp44
bsS'C_{lg}'
p45
g22
(g16
S'\x02\xb5\x06\x00\x00\x00\xf0?'
p46
tp47
Rp48
sS'w_{sys}'
p49
g22
(g16
S'^\xb5\x06\x00\x00\x00\xf0?'
p50
tp51
Rp52
sS'A_{vbend_{b}}'
p53
g7
(g8
(I0
tp54
g10
tp55
Rp56
(I1
(tg16
I00
S'\x97\xca~\xf3\x0e\xdb\xa1?'
p57
tp58
bsS'V_{vt}'
p59
g22
(g16
S'\xcd\x8bL\xeb\xaa\x16\xc4?'
p60
tp61
Rp62
sS'x_{up}'
p63
g22
(g16
S'\x02\xb5\x06\x00\x00\x00\xf0?'
p64
tp65
Rp66
sS'AR_{vt}'
p67
g22
(g16
S'\n\xeb\xfd\xff\xff\xff\x0f@'
p68
tp69
Rp70
sS'P_{floor}'
p71
g7
(g8
(I0
tp72
g10
tp73
Rp74
(I1
(tg16
I00
S'\xb1!;\x8a%V1A'
p75
tp76
bsS'SPR'
p77
g22
(g16
S'\x84\xf6\x17\x00\x00\x00\xf0?'
p78
tp79
Rp80
sS'Rng'
p81
g7
(g8
(I0
tp82
g10
tp83
Rp84
(I1
(I2
I1
tp85
g16
I00
S']\xd8\xb9\x00\x00p\x97@]\xd8\xb9\x00\x00p\x97@'
p86
tp87
bsS'f_{apu}'
p88
g22
(g16
S'\x16\xf6\x17\x00\x00\x00\xf0?'
p89
tp90
Rp91
sS'\\alpha_{ht}'
p92
g7
(g8
(I0
tp93
g10
tp94
Rp95
(I1
(I2
I1
tp96
g16
I00
S'\xb8\xb8\x15%\xd6\x16Z?)\xb0\xa5\xf7b\xd5b?'
p97
tp98
bsS'y_{mac}'
p99
g7
(g8
(I0
tp100
g10
tp101
Rp102
(I1
(tg16
I00
S'\x07w4\xe3\xfe\x1e%@'
p103
tp104
bsS'V_{bulk}'
p105
g7
(g8
(I0
tp106
g10
tp107
Rp108
(I1
(tg16
I00
S'\xa0\xb7XS\r\xd0\x97?'
p109
tp110
bsS'C_{VT}'
p111
g22
(g16
S'%\xbb\x06\x00\x00\x00\xf0?'
p112
tp113
Rp114
sS'e_v'
p115
g22
(g16
S'\xb6\xb9\x06\x00\x00\x00\xf0?'
p116
tp117
Rp118
sS'W_{insul}'
p119
g7
(g8
(I0
tp120
g10
tp121
Rp122
(I1
(tg16
I00
S'\\\xcc\xc1\x9f%%\x8c@'
p123
tp124
bsS'W_{lg}'
p125
g7
(g8
(I0
tp126
g10
tp127
Rp128
(I1
(tg16
I00
S'C\x00\xc4\x00\x07\xb0\xcb@'
p129
tp130
bsS'x_{CG_{ht}}'
p131
g7
(g8
(I0
tp132
g10
tp133
Rp134
(I1
(tg16
I00
S'\xb0\x003k\xf5SB@'
p135
tp136
bsS'M_{min}'
p137
g22
(g16
S'\x00\x00\x00\x00\x00\x00\xf0?'
p138
tp139
Rp140
sS'N_{lift}'
p141
g22
(g16
S']\xbb\x06\x00\x00\x00\xf0?'
p142
tp143
Rp144
sS'w_{db}'
p145
g7
(g8
(I0
tp146
g10
tp147
Rp148
(I1
(tg16
I00
S'\xd5\n#)\xdd\x9d(?'
p149
tp150
bsS'w_{fuse}'
p151
g7
(g8
(I0
tp152
g10
tp153
Rp154
(I1
(tg16
I00
S'\xec\xcbH\xe4\x14\xae\xfd?'
p155
tp156
bsS'f_{L_{o}}'
p157
g7
(g8
(I0
tp158
g10
tp159
Rp160
(I1
(I2
I1
tp161
g16
I00
S'\x1d\xf6\x17\x00\x00\x00\xf0?\x14\xf6\x17\x00\x00\x00\xf0?'
p162
tp163
bsS'W_{burn}'
p164
g7
(g8
(I0
tp165
g10
tp166
Rp167
(I1
(I2
I1
tp168
g16
I00
S'\xbcLcF\xd3\t\xc7@\xcejbF\xd3\t\xc7@'
p169
tp170
bsS'p_{ht}'
p171
g22
(g16
S'~\xa0\xae<\x02\x00\xf8?'
p172
tp173
Rp174
sS'l_{oleo}'
p175
g7
(g8
(I0
tp176
g10
tp177
Rp178
(I1
(tg16
I00
S'\x19Y\xba\xfe\x06\xad\xed?'
p179
tp180
bsS'n_{aisle}'
p181
g22
(g16
S'\x00\x00\x00\x00\x00\x00\xf0?'
p182
tp183
Rp184
sS'W_{web}'
p185
g7
(g8
(I0
tp186
g10
tp187
Rp188
(I1
(tg16
I00
S'l\xb6\xb9\x00R\x04\x91@'
p189
tp190
bsS'W_{ng}'
p191
g7
(g8
(I0
tp192
g10
tp193
Rp194
(I1
(tg16
I00
S'R\xd6\xd8]<5\x82@'
p195
tp196
bsS'f_{add,m}'
p197
g22
(g16
S'[\xb6\x06\x00\x00\x00\xf0?'
p198
tp199
Rp200
sS'h'
p201
g7
(g8
(I0
tp202
g10
tp203
Rp204
(I1
(I2
I1
tp205
g16
I00
S'\\X\xe6\xff\xff\xd5\xc4@\\X\xe6\xff\xff\xd5\xc4@'
p206
tp207
bsS'W_{f_{primary}}'
p208
g7
(g8
(I0
tp209
g10
tp210
Rp211
(I1
(I1
tp212
g16
I00
S'U\xbd@I\xd3\t\xd7@'
p213
tp214
bsS'p'
p215
g22
(g16
S'){\xe8\xe0\xcc\xcc\xf4?'
p216
tp217
Rp218
sS'\\tau'
p219
g22
(g16
S'\x86\x91\x96f\x1f\x7f\xbf?'
p220
tp221
Rp222
sS'T_{cabin}'
p223
g7
(g8
(I0
tp224
g10
tp225
Rp226
(I1
(I2
I1
tp227
g16
I00
S'\x01\x00\x00\x00\x00\x90r@\x01\x00\x00\x00\x00\x90r@'
p228
tp229
bsS'P_{atm}'
p230
g7
(g8
(I0
tp231
g10
tp232
Rp233
(I1
(I2
I1
tp234
g16
I00
S'Q\x94\xaf\xe2\xbaF\xd7@.\xe8\xb1\xe2\xbaF\xd7@'
p235
tp236
bsS'P_{cabin}'
p237
g7
(g8
(I0
tp238
g10
tp239
Rp240
(I1
(I2
I1
tp241
g16
I00
S'\xfd\xff\xff\xff\x7fO\xf2@\xfd\xff\xff\xff\x7fO\xf2@'
p242
tp243
bsS'c_{root_{ht}}'
p244
g7
(g8
(I0
tp245
g10
tp246
Rp247
(I1
(tg16
I00
S'\x0f\xeb\x93R\x1e\xf5\x05@'
p248
tp249
bsS'W_{avg. pass_{total}}'
p250
g7
(g8
(I0
tp251
g10
tp252
Rp253
(I1
(tg16
I00
S'\x10g\xf4\xff\xff\xdfj@'
p254
tp255
bsS'c_{tip_{vt}}'
p256
g7
(g8
(I0
tp257
g10
tp258
Rp259
(I1
(tg16
I00
S'b\x8c\xd5a\xb1\x0b\xfe?'
p260
tp261
bsS'e_h'
p262
g22
(g16
S'\x00\x83\xd940\xad\xef?'
p263
tp264
Rp265
sS'S_{ht}'
p266
g7
(g8
(I0
tp267
g10
tp268
Rp269
(I1
(tg16
I00
S"\xaf<\xda-\xa5\x8a'@"
p270
tp271
bsS'I_{cap}'
p272
g22
(g16
S'L\xb2\xc2h\xa0\r\xeb>'
p273
tp274
Rp275
sS'W_{db}'
p276
g7
(g8
(I0
tp277
g10
tp278
Rp279
(I1
(tg16
I00
S'\x9a\x1e#\x18|b\xbd?'
p280
tp281
bsS'B_{1v}'
p282
g7
(g8
(I0
tp283
g10
tp284
Rp285
(I1
(tg16
I00
S'\xef\xf8]\xd5\xa0\x06d?'
p286
tp287
bsS'p_{sl}'
p288
g7
(g8
(I0
tp289
g10
tp290
Rp291
(I1
(I2
I1
tp292
g16
I00
S'\x84t\xdd\xff\xcf\xbc\xf8@}\xc8\xdd\xff\xcf\xbc\xf8@'
p293
tp294
bsS'x_{misc}'
p295
g7
(g8
(I0
tp296
g10
tp297
Rp298
(I1
(tg16
I00
S'\xd8\xb2\x13\x88\xb0D+@'
p299
tp300
bsS'C_{fuse}'
p301
g22
(g16
S'\xf0\\\xf2\xff\xff\xff\xef?'
p302
tp303
Rp304
sS'y_{eng}'
p305
g22
(g16
S'g\xfb\x17\x00\x00\x00\xf0?'
p306
tp307
Rp308
sS'x_{hpesys}'
p309
g7
(g8
(I0
tp310
g10
tp311
Rp312
(I1
(tg16
I00
S'\xec\x81j\xce\x88\xd2\x1a@'
p313
tp314
bsS'p_{vt}'
p315
g22
(g16
S'BK.\xb2\x99\x99\xf9?'
p316
tp317
Rp318
sS'W_{VT}'
p319
g7
(g8
(I0
tp320
g10
tp321
Rp322
(I1
(tg16
I00
S'1\xfa\x1e\xb4"D\xae@'
p323
tp324
bsS't_{skin}'
p325
g7
(g8
(I0
tp326
g10
tp327
Rp328
(I1
(tg16
I00
S'\x81w\x8e\xe4\xb40Q?'
p329
tp330
bsS'M_r'
p331
g7
(g8
(I0
tp332
g10
tp333
Rp334
(I1
(tg16
I00
S'w\x83\xdc\x11\x97A3A'
p335
tp336
bsS'h_{fuse}'
p337
g7
(g8
(I0
tp338
g10
tp339
Rp340
(I1
(tg16
I00
S'\x89Gp\xe5\xe8\x0c\xfe?'
p341
tp342
bsS'\\sigma_{M_v}'
p343
g7
(g8
(I0
tp344
g10
tp345
Rp346
(I1
(tg16
I00
S'F\xc6%i\xb9\x18\xa4A'
p347
tp348
bsS'p_s'
p349
g7
(g8
(I0
tp350
g10
tp351
Rp352
(I1
(tg16
I00
S'\xb0\x19\xf4\xff\xff?T@'
p353
tp354
bsS'c_{tip}'
p355
g7
(g8
(I0
tp356
g10
tp357
Rp358
(I1
(tg16
I00
S'xH rn\xca\xe4?'
p359
tp360
bsS'h_{floor}'
p361
g22
(g16
S'\xc2\xb5\x06\x00\x00\x00\xf0?'
p362
tp363
Rp364
sS'Re_{vt}'
p365
g7
(g8
(I0
tp366
g10
tp367
Rp368
(I1
(I2
I1
tp369
g16
I00
S'\xea\xce\x17\x9fx\xb8zA\x95\xf2\x19\x9fx\xb8zA'
p370
tp371
bsS'W_{wing}'
p372
g7
(g8
(I0
tp373
g10
tp374
Rp375
(I1
(tg16
I00
S'C\x95\xa3\xe6\xc0\xe7\xc9@'
p376
tp377
bsS'W_{Load_max}'
p378
g7
(g8
(I0
tp379
g10
tp380
Rp381
(I1
(I2
I1
tp382
g16
I00
S'c\xf6\n\x00\x00\x08\xba@y\xe9\n\x00\x00\x08\xba@'
p383
tp384
bsS'W_{payload}'
p385
g7
(g8
(I0
tp386
g10
tp387
Rp388
(I1
(I1
tp389
g16
I00
S'\xc0\x12\xa5\x01\x80\xe5\xe2@'
p390
tp391
bsS'n_{wps}'
p392
g22
(g16
S'\x84R\xfd\xff\xff\xff\xff?'
p393
tp394
Rp395
sS'C_{L_{vmax}}'
p396
g22
(g16
S'W\xf6\x17\x00\x00\x00\xf0?'
p397
tp398
Rp399
sS'\\sigma_{max}'
p400
g22
(g16
S'\x00\x00\x00\x00\x00\x00\xf0?'
p401
tp402
Rp403
sS'M_{r_{out}}'
p404
g7
(g8
(I0
tp405
g10
tp406
Rp407
(I1
(tg16
I00
S'\xad\xd0\x18\x1b\x1d\x9f\xf1@'
p408
tp409
bsS'N_s'
p410
g22
(g16
S'\xf0\t\x08\x00\x00\x00\xf0?'
p411
tp412
Rp413
sS'n_{eng}'
p414
g22
(g16
S'\xa3\xf6\x17\x00\x00\x00\xf0?'
p415
tp416
Rp417
sS'A_{hbendf_{Land}}'
p418
g7
(g8
(I0
tp419
g10
tp420
Rp421
(I1
(tg16
I00
S'\xc5m\xa6\xed\x8f\x84\x91?'
p422
tp423
bsS'\\rho_{web}'
p424
g7
(g8
(I0
tp425
g10
tp426
Rp427
(I1
(tg16
I00
S'\xfe\xff\xff\xff\xff\x17\xa5@'
p428
tp429
bsS'\\tan(\\psi_{max})'
p430
g22
(g16
S'\x0e\xb5\x06\x00\x00\x00\xf0?'
p431
tp432
Rp433
sS'\\cos(\\Lambda_{vt})^3'
p434
g22
(g16
S"\xae'\x06\x00\x00\x00\xf0?"
p435
tp436
Rp437
sS'FuelFrac'
p438
g22
(g16
S'\x02\xb5\x06\x00\x00\x00\xf0?'
p439
tp440
Rp441
sS'd_{nacelle}'
p442
g7
(g8
(I0
tp443
g10
tp444
Rp445
(I1
(tg16
I00
S'u\xef\xe0\xbegf\x00@'
p446
tp447
bsS'\\tan(\\phi_{min})'
p448
g22
(g16
S'r\xb5\x06\x00\x00\x00\xf0?'
p449
tp450
Rp451
sS'\\tau_{ht}'
p452
g22
(g16
S'\x83\xfd=\xb5\x83\xeb\xc1?'
p453
tp454
Rp455
sS'I_n'
p456
g7
(g8
(I0
tp457
g10
tp458
Rp459
(I1
(tg16
I00
S'n>\xb1\xe7\xbd3\x87>'
p460
tp461
bsS'I_{h_{shell}}'
p462
g7
(g8
(I0
tp463
g10
tp464
Rp465
(I1
(tg16
I00
S'\x88\xd6V\x10\x151\x9e?'
p466
tp467
bsS'\\dot{r}_{req}'
p468
g22
(g16
S'\x08\x00\x00\x00\x00\x00\xf0?'
p469
tp470
Rp471
sS'K'
p472
g22
(g16
S'\x91\xec\xef\xff\xff\xff\xff?'
p473
tp474
Rp475
sS'C_{D_{fuse}}'
p476
g7
(g8
(I0
tp477
g10
tp478
Rp479
(I1
(I2
I1
tp480
g16
I00
S'\xa4_\xc7$\xc8\xad\x86?\xa4_\xc7$\xc8\xad\x86?'
p481
tp482
bsS'C_{engsys}'
p483
g22
(g16
S'\x00\x00\x00\x00\x00\x00\xf0?'
p484
tp485
Rp486
sS'z_{\\bar{c}_{vt}}'
p487
g7
(g8
(I0
tp488
g10
tp489
Rp490
(I1
(tg16
I00
S'FR\x817\x87\xa1\x01@'
p491
tp492
bsS'S'
p493
g7
(g8
(I0
tp494
g10
tp495
Rp496
(I1
(tg16
I00
S',\x05j*\x99LV@'
p497
tp498
bsS'p_{\\lambda_v}'
p499
g22
(g16
S'\xe0\xc3\x06\x00\x00\x00\xf0?'
p500
tp501
Rp502
sS'\\lambda_{LG}'
p503
g22
(g16
S'\xba\xcb\xfd\xff\xff\xff\x03@'
p504
tp505
Rp506
sS'c_{d_{ph}}'
p507
g22
(g16
S'\x00\x00\x00\x00\x00\x00\xf0?'
p508
tp509
Rp510
sS'f_{HT}'
p511
g22
(g16
S'\x12\xb5\x06\x00\x00\x00\xf0?'
p512
tp513
Rp514
sS'f(\\lambda_w)'
p515
g22
(g16
S'U1k\xa3\xae\xb0r?'
p516
tp517
Rp518
sS'L_{h_{tri_{out}}}'
p519
g7
(g8
(I0
tp520
g10
tp521
Rp522
(I1
(tg16
I00
S'\x92W\x04\xfe\xa7j\xf4@'
p523
tp524
bsS'S_{sa}'
p525
g7
(g8
(I0
tp526
g10
tp527
Rp528
(I1
(tg16
I00
S'\xad\xad.2\x9f\xbd\xd7?'
p529
tp530
bsS'L_{total}'
p531
g7
(g8
(I0
tp532
g10
tp533
Rp534
(I1
(I2
I1
tp535
g16
I00
S'W\x8d\x80\xd7\xbf\x8d#A\x11\xd0\x11\x94\x16M"A'
p536
tp537
bsS'taper'
p538
g22
(g16
S'e\xdf5333\xd3?'
p539
tp540
Rp541
sS'C_{D_{vis}}'
p542
g7
(g8
(I0
tp543
g10
tp544
Rp545
(I1
(I2
I1
tp546
g16
I00
S'\x91c\x11\xc7\x9f\xdc\x80?\xdb(\xb6\xdb\xcd\x87\x81?'
p547
tp548
bsS'r_{w/c}'
p549
g22
(g16
S'\xaf\x18\xf7\xff\xff\xff\xdf?'
p550
tp551
Rp552
sS'L_{fuse}'
p553
g7
(g8
(I0
tp554
g10
tp555
Rp556
(I1
(I2
I1
tp557
g16
I00
S'\x15\x86\xba\xab\xb9\xa0\xf1@\x84\xc7\xf6\x81\xa5\x7f\xf0@'
p558
tp559
bsS'R_{fuse}'
p560
g7
(g8
(I0
tp561
g10
tp562
Rp563
(I1
(tg16
I00
S'\xbdF\xb7x\xb4\x0c\xfe?'
p564
tp565
bsS'A_{vt}'
p566
g22
(g16
S'\xa2\xf6\x17\x00\x00\x00\xf0?'
p567
tp568
Rp569
sS'y_{\\bar{c}_{ht}}'
p570
g7
(g8
(I0
tp571
g10
tp572
Rp573
(I1
(tg16
I00
S'\xbf\xfe\xdd&\x1d\x7f\xfe?'
p574
tp575
bsS'\\tan(\\phi)'
p576
g22
(g16
S'\xcd\x93_\x14\x15&\xd1?'
p577
tp578
Rp579
sS'x_f'
p580
g7
(g8
(I0
tp581
g10
tp582
Rp583
(I1
(tg16
I00
S'<:\x02\x97\x9b\xec1@'
p584
tp585
bsS'T_{atm}'
p586
g7
(g8
(I0
tp587
g10
tp588
Rp589
(I1
(I2
I1
tp590
g16
I00
S'g\xca\xf1\x12\xdbYk@a\x04\xf3\x12\xdbYk@'
p591
tp592
bsS'\\sigma_{M_h}'
p593
g7
(g8
(I0
tp594
g10
tp595
Rp596
(I1
(tg16
I00
S'\x1au)#\xb9\x18\xa4A'
p597
tp598
bsS'V_{mn}'
p599
g22
(g16
S'\x00\x00\x00\x00\x00\x00\xf0?'
p600
tp601
Rp602
sS'x_n'
p603
g7
(g8
(I0
tp604
g10
tp605
Rp606
(I1
(tg16
I00
S'\xac\xe1\xe7F\xb0^\x18@'
p607
tp608
bsS'x_m'
p609
g7
(g8
(I0
tp610
g10
tp611
Rp612
(I1
(tg16
I00
S'!\xae\xe8X\xc5\x8b3@'
p613
tp614
bsS'\\eta'
p615
g22
(g16
S'Bw\x9ep=\n\xef?'
p616
tp617
Rp618
sS'c_0'
p619
g7
(g8
(I0
tp620
g10
tp621
Rp622
(I1
(tg16
I00
S'\xdf~\xe5\xef[S\x11@'
p623
tp624
bsS'W_{avg. pass}'
p625
g7
(g8
(I0
tp626
g10
tp627
Rp628
(I1
(tg16
I00
S'\x18\xf5\xe3\xff\xff\x7ff@'
p629
tp630
bsS'F_{w_m}'
p631
g22
(g16
S'+\xb0\xca\x0ex\xdb\xb9@'
p632
tp633
Rp634
sS'W_{mw}'
p635
g7
(g8
(I0
tp636
g10
tp637
Rp638
(I1
(tg16
I00
S'\xbe\x07B\xe52\xb4\xa1@'
p639
tp640
bsS'\\Delta x_n'
p641
g7
(g8
(I0
tp642
g10
tp643
Rp644
(I1
(tg16
I00
S'K\xcfd\xde\x8a\x97(@'
p645
tp646
bsS'\\bar{A}_{fuel, max}'
p647
g22
(g16
S'\xad\xc2\xeb\xfeKH\xb49'
p648
tp649
Rp650
sS'A_{2}'
p651
g7
(g8
(I0
tp652
g10
tp653
Rp654
(I1
(tg16
I00
S'\xa30\xe3H\xec&\x1e@'
p655
tp656
bsS'V_{hbend_{c}}'
p657
g7
(g8
(I0
tp658
g10
tp659
Rp660
(I1
(tg16
I00
S'p<Z\xb0\x9eC\xa7?'
p661
tp662
bsS'V_{cyl}'
p663
g7
(g8
(I0
tp664
g10
tp665
Rp666
(I1
(tg16
I00
S'\n\xc2\xd8\xf3\xb9A\xd3?'
p667
tp668
bsS'\\rho_{cabin}'
p669
g7
(g8
(I0
tp670
g10
tp671
Rp672
(I1
(I2
I1
tp673
g16
I00
S"\xfc_\xe1\xda\xf7'\xec?\xf5\x9f\xf3\xda\xf7'\xec?"
p674
tp675
bsS'\\rho_{bend}'
p676
g22
(g16
S'\x88\xe3\x15\x00\x00\x00\xf0?'
p677
tp678
Rp679
sS'C_{L_{ah}}'
p680
g7
(g8
(I0
tp681
g10
tp682
Rp683
(I1
(I2
I1
tp684
g16
I00
S'\x1f\x85\xebQ\xb8\x1e\x19@\x1f\x85\xebQ\xb8\x1e\x19@'
p685
tp686
bsS'f_{ribs}'
p687
g22
(g16
S'\x9e%+333\xc3?'
p688
tp689
Rp690
sS'W_{vbend}'
p691
g7
(g8
(I0
tp692
g10
tp693
Rp694
(I1
(tg16
I00
S't\x17|\x1d\x04\xf2\x9a@'
p695
tp696
bsS'F_{fuel}'
p697
g7
(g8
(I0
tp698
g10
tp699
Rp700
(I1
(I2
I1
tp701
g16
I00
S'\xc1\x18\xe1=\x00\x00\xe0?D\xaf\xbc\x9a\xf2\xd7z>'
p702
tp703
bsS'W_{misc}'
p704
g7
(g8
(I0
tp705
g10
tp706
Rp707
(I1
(tg16
I00
S'&Wb\r\x17\xd2\xb2@'
p708
tp709
bsS'n_{pax}'
p710
g7
(g8
(I0
tp711
g10
tp712
Rp713
(I1
(I1
tp714
g16
I00
S'\x00\x00\x00\x00\x00\x80f@'
p715
tp716
bsS'\\cos(\\Lambda)'
p717
g22
(g16
S'\xb2\xf2U\xbb\xeb\xc2\xec?'
p718
tp719
Rp720
sS'W_{avg}'
p721
g7
(g8
(I0
tp722
g10
tp723
Rp724
(I1
(I2
I1
tp725
g16
I00
S'W\xd5\x99J\x85\x8c\x01A4\xe2b@NR\x00A'
p726
tp727
bsS'A_{hbendf_{MLF}}'
p728
g7
(g8
(I0
tp729
g10
tp730
Rp731
(I1
(tg16
I00
S'\xc94\xc04\xc0\xd6\x8d?'
p732
tp733
bsS'ReserveFraction'
p734
g22
(g16
S'\xba\xac\x93\x99\x99\x99\xc9?'
p735
tp736
Rp737
sS'd_{oleo}'
p738
g7
(g8
(I0
tp739
g10
tp740
Rp741
(I1
(tg16
I00
S'\xf7\x91\xb2\x12L3\xd7?'
p742
tp743
bsS'W_{padd}'
p744
g7
(g8
(I0
tp745
g10
tp746
Rp747
(I1
(tg16
I00
S'\xbf\x80P\x02\x80t\xca@'
p748
tp749
bsS'\\mu_0'
p750
g7
(g8
(I0
tp751
g10
tp752
Rp753
(I1
(tg16
I00
S'\xfbi\xe5\x94\xd6\xdf\xf2>'
p754
tp755
bsS'\\rho_{st}'
p756
g22
(g16
S'h\xed\x17\x00\x00\x00\xf0?'
p757
tp758
Rp759
sS'D_{ht}'
p760
g7
(g8
(I0
tp761
g10
tp762
Rp763
(I1
(I2
I1
tp764
g16
I00
S'\xbb\n\xa9\x03\x8c.\x90@o<\x92\xaf\x07\x14\x93@'
p765
tp766
bsS'A_{1h_{MLF}}'
p767
g7
(g8
(I0
tp768
g10
tp769
Rp770
(I1
(tg16
I00
S'\x8f\xc0\xa5\xc3\xa1\xafA?'
p771
tp772
bsS'E_{land}'
p773
g7
(g8
(I0
tp774
g10
tp775
Rp776
(I1
(tg16
I00
S'1\x05\x07A\xc2t\x1bA'
p777
tp778
bsS'F'
p779
g7
(g8
(I0
tp780
g10
tp781
Rp782
(I1
(tg16
I00
S'\xe4}\x11ra@\xca@'
p783
tp784
bsS'C_{L_{vtEO}}'
p785
g22
(g16
S'\xe62\x1d\xa3\xd9\x1a\xdd?'
p786
tp787
Rp788
sS'V_{vbend_{b}}'
p789
g7
(g8
(I0
tp790
g10
tp791
Rp792
(I1
(tg16
I00
S'\xbb\x91d\x9fJ\x1e\xd0?'
p793
tp794
bsS'b_{ht_{out}}'
p795
g7
(g8
(I0
tp796
g10
tp797
Rp798
(I1
(tg16
I00
S'\x9ey:2fr\x0b@'
p799
tp800
bsS'l_{fuse}'
p801
g7
(g8
(I0
tp802
g10
tp803
Rp804
(I1
(tg16
I00
S'\xc7dMo\xf5SB@'
p805
tp806
bsS'b_{ht}'
p807
g7
(g8
(I0
tp808
g10
tp809
Rp810
(I1
(tg16
I00
S'\x9dy:2fr\x1b@'
p811
tp812
bsS"W''_{floor}"
p813
g7
(g8
(I0
tp814
g10
tp815
Rp816
(I1
(tg16
I00
S'dj\xf3\xff\xff\xffM@'
p817
tp818
bsS'V_{land}'
p819
g7
(g8
(I0
tp820
g10
tp821
Rp822
(I1
(tg16
I00
S'\x1d\xa0\x08\x00\x00\x00R@'
p823
tp824
bsS'W_{pax}'
p825
g7
(g8
(I0
tp826
g10
tp827
Rp828
(I1
(I1
tp829
g16
I00
S'\xab\x90\xd8\xff\xff\xa3\xdf@'
p830
tp831
bsS'V'
p832
g7
(g8
(I0
tp833
g10
tp834
Rp835
(I1
(I2
I1
tp836
g16
I00
S'\x83\x80\xca\xe1z\xd1|@\x1f\x9b\xcb\xe1z\xd1|@'
p837
tp838
bsS'W_{struct}'
p839
g7
(g8
(I0
tp840
g10
tp841
Rp842
(I1
(tg16
I00
S')\xee\x99\xdc\xc0\xf3\x81@'
p843
tp844
bsS"W'_{seat}"
p845
g22
(g16
S'\x02\xb5\x06\x00\x00\x00\xf0?'
p846
tp847
Rp848
sS'S_{vt}'
p849
g7
(g8
(I0
tp850
g10
tp851
Rp852
(I1
(tg16
I00
S'q\xa5\xde\xfd\xdf\x8d@@'
p853
tp854
bsS'\\alpha_{max,w}'
p855
g7
(g8
(I0
tp856
g10
tp857
Rp858
(I1
(I2
I1
tp859
g16
I00
S'\x98\x99\x99\x99\x99\x99\xb9?\x98\x99\x99\x99\x99\x99\xb9?'
p860
tp861
bsS'\\rho'
p862
g7
(g8
(I0
tp863
g10
tp864
Rp865
(I1
(I2
I1
tp866
g16
I00
S'\xa1wY\xa1GI\xd8?it[\xa1GI\xd8?'
p867
tp868
bsS'A_{0h}'
p869
g7
(g8
(I0
tp870
g10
tp871
Rp872
(I1
(tg16
I00
S'\xe3\\\x84q>\x1e\x81?'
p873
tp874
bsS'b_{max}'
p875
g7
(g8
(I0
tp876
g10
tp877
Rp878
(I1
(tg16
I00
S'\xa41\xf1&1\xe8A@'
p879
tp880
bsS'A_{rect}'
p881
g7
(g8
(I0
tp882
g10
tp883
Rp884
(I1
(tg16
I00
S'S\x95\xffv\xccD7@'
p885
tp886
bsS'W_{VT_system}'
p887
g7
(g8
(I0
tp888
g10
tp889
Rp890
(I1
(tg16
I00
S'\xdeh\x10\x92-\xd4\xd0@'
p891
tp892
bsS'f_{lugg,2}'
p893
g22
(g16
S'\x04\xb5\x06\x00\x00\x00\xf0?'
p894
tp895
Rp896
sS'ReqRng'
p897
g22
(g16
S'\xb8;\x07\x00\x00\x00\xf0?'
p898
tp899
Rp900
sS'\\Delta L_{t}'
p901
g7
(g8
(I0
tp902
g10
tp903
Rp904
(I1
(I2
I1
tp905
g16
I00
S'\xfeA\xc1\xa5\xed\xd0`@(<\x0c\x06\xbb\xb1`@'
p906
tp907
bsS'SM'
p908
g7
(g8
(I0
tp909
g10
tp910
Rp911
(I1
(I2
I1
tp912
g16
I00
S'7\x87\x10\x9b33\xc3?\xf1A\xc1\xbb\xdaX\xc3?'
p913
tp914
bsS'C_{D_{i_w}}'
p915
g7
(g8
(I0
tp916
g10
tp917
Rp918
(I1
(I2
I1
tp919
g16
I00
S',\xa7^B\xac\xd2\x82?\xa6\x1d\x04\x92\xf6\xf3\x80?'
p920
tp921
bsS'x_{CG_{vt}}'
p922
g7
(g8
(I0
tp923
g10
tp924
Rp925
(I1
(tg16
I00
S'\xca\xd5_\x87Y\xc3@@'
p926
tp927
bsS'\\rho_{T/O}'
p928
g22
(g16
S'\x00\x00\x00\x00\x00\x00\xf0?'
p929
tp930
Rp931
sS'f_{spoiler}'
p932
g22
(g16
S'\x8b~\xa5G\xe1z\x94?'
p933
tp934
Rp935
sS'\\rho_0'
p936
g7
(g8
(I0
tp937
g10
tp938
Rp939
(I1
(tg16
I00
S'\x9a\x99\x99\x99\x99\x99\xf3?'
p940
tp941
bsS'c_{d_{fh}}'
p942
g22
(g16
S'\xc8\xcb\xf9\xff\xff\xff\xef?'
p943
tp944
Rp945
sS'L_w'
p946
g7
(g8
(I0
tp947
g10
tp948
Rp949
(I1
(I2
I1
tp950
g16
I00
S'\xd1K"\xa2\xa8Y!Aik\xea\xe3!= A'
p951
tp952
bsS'\\lambda'
p953
g22
(g16
S'\xbf\xe6\xdfO33\xc3?'
p954
tp955
Rp956
sS'D_{vt}'
p957
g7
(g8
(I0
tp958
g10
tp959
Rp960
(I1
(I2
I1
tp961
g16
I00
S'\x17p\x02!O\xbc\xa6@\xa4w\xba\xfc\x84\x1a\xa8@'
p962
tp963
bsS'wwn'
p964
g22
(g16
S'\x02\xb5\x06\x00\x00\x00\xf0?'
p965
tp966
Rp967
sS'\\rho_{lugg}'
p968
g22
(g16
S'\x16\xf6\x17\x00\x00\x00\xf0?'
p969
tp970
Rp971
sS'y_m'
p972
g7
(g8
(I0
tp973
g10
tp974
Rp975
(I1
(tg16
I00
S'\xbf\x9cd(\xa9\xab\x03@'
p976
tp977
bsS'A_{floor}'
p978
g7
(g8
(I0
tp979
g10
tp980
Rp981
(I1
(tg16
I00
S'D\xaa\xbf,{\xa4\xa6?'
p982
tp983
bsS'W_{total}'
p984
g7
(g8
(I0
tp985
g10
tp986
Rp987
(I1
(I1
tp988
g16
I00
S'\xda\xab\xb6Y\xb24\x02A'
p989
tp990
bsS'\\Delta L_{o}'
p991
g7
(g8
(I0
tp992
g10
tp993
Rp994
(I1
(I2
I1
tp995
g16
I00
S'\xee\xd1<\x90\x99\x01\xd9@a\x98\xba"5\xd3\xd8@'
p996
tp997
bsS'A_{skin}'
p998
g7
(g8
(I0
tp999
g10
tp1000
Rp1001
(I1
(tg16
I00
S'\xa3$G\x1c\xd2[\x89?'
p1002
tp1003
bsS'\\sigma_{bend}'
p1004
g7
(g8
(I0
tp1005
g10
tp1006
Rp1007
(I1
(tg16
I00
S'\xa5sDO\xfb\xa9\xa8A'
p1008
tp1009
bsS'L_{atm}'
p1010
g7
(g8
(I0
tp1011
g10
tp1012
Rp1013
(I1
(I2
I1
tp1014
g16
I00
S'z\t\r\x80\xbe\x9fz?\xddg\x0c\x80\xbe\x9fz?'
p1015
tp1016
bsS'L_h'
p1017
g7
(g8
(I0
tp1018
g10
tp1019
Rp1020
(I1
(I2
I1
tp1021
g16
I00
S'\xa5\x84\xad\x16\x8c\xa2\x93@5-\xf8\xf5:Y\x9c@'
p1022
tp1023
bsS'w_{ult}'
p1024
g22
(g16
S'\xc6\xaa\x07\x00\x00\x00\xf0?'
p1025
tp1026
Rp1027
sS'L_m'
p1028
g7
(g8
(I0
tp1029
g10
tp1030
Rp1031
(I1
(tg16
I00
S'\n\x17\x83D\x04\x81"A'
p1032
tp1033
bsS'L_n'
p1034
g7
(g8
(I0
tp1035
g10
tp1036
Rp1037
(I1
(tg16
I00
S'\xdc#\xb0\xe6j2\xe0@'
p1038
tp1039
bsS'C_1'
p1040
g7
(g8
(I0
tp1041
g10
tp1042
Rp1043
(I1
(I2
I1
tp1044
g16
I00
S'"C)\x00\x10v\xb8>\xe5Q)\x00\x10v\xb8>'
p1045
tp1046
bsS'M_{atm}'
p1047
g7
(g8
(I0
tp1048
g10
tp1049
Rp1050
(I1
(I2
I1
tp1051
g16
I00
S'a\xf6\x17\x00\x00\x00\xf0?\x16\xf6\x17\x00\x00\x00\xf0?'
p1052
tp1053
bsS'c_{d_{fv}}'
p1054
g22
(g16
S'\xd0\xd8\xf9\xff\xff\xff\xef?'
p1055
tp1056
Rp1057
sS'L_{max}'
p1058
g7
(g8
(I0
tp1059
g10
tp1060
Rp1061
(I1
(tg16
I00
S'\x02\x88\xc98F\r*A'
p1062
tp1063
bsS'x_{NP}'
p1064
g7
(g8
(I0
tp1065
g10
tp1066
Rp1067
(I1
(I2
I1
tp1068
g16
I00
S'Ak\xc6)\xbb$\xf6?>k\xc6)\xbb$\xf6?'
p1069
tp1070
bsS'\\tan(\\Lambda_{vt})'
p1071
g22
(g16
S'\x00\x00\x00\x00\x00\x00\xf0?'
p1072
tp1073
Rp1074
sS'f_{flap}'
p1075
g22
(g16
S'P\xb6\x06\x00\x00\x00\xf0?'
p1076
tp1077
Rp1078
sS'W_{hpesys}'
p1079
g7
(g8
(I0
tp1080
g10
tp1081
Rp1082
(I1
(tg16
I00
S'\xed>\xb9\x16\xb1M\x97@'
p1083
tp1084
bsS'm_{ratio}'
p1085
g22
(g16
S'[\x15\xbb\xe3\xd5\x11\xf5?'
p1086
tp1087
Rp1088
sS'C_D'
p1089
g7
(g8
(I0
tp1090
g10
tp1091
Rp1092
(I1
(I2
I1
tp1093
g16
I00
S"l#=>'\xe8\x9c?,q\x85\x89\x05\xcd\x9c?"
p1094
tp1095
bsS'L_{n_{dyn}}'
p1096
g7
(g8
(I0
tp1097
g10
tp1098
Rp1099
(I1
(tg16
I00
S'\xc96i\x0e8\xc6\xf2@'
p1100
tp1101
bsS'V_{vbend_{c}}'
p1102
g7
(g8
(I0
tp1103
g10
tp1104
Rp1105
(I1
(tg16
I00
S'\x9e\x07\xdf\xbd\xc8U\xa3?'
p1106
tp1107
bsS'x_{shell2}'
p1108
g7
(g8
(I0
tp1109
g10
tp1110
Rp1111
(I1
(tg16
I00
S'*eSt`e>@'
p1112
tp1113
bsS'T_e'
p1114
g7
(g8
(I0
tp1115
g10
tp1116
Rp1117
(I1
(tg16
I00
S'<\xe0\xd1\xff\x7f~\xff@'
p1118
tp1119
bsS'mac'
p1120
g7
(g8
(I0
tp1121
g10
tp1122
Rp1123
(I1
(tg16
I00
S'\x84\xbfZ\xf3;\x84\x0b@'
p1124
tp1125
bsS'S_{floor}'
p1126
g7
(g8
(I0
tp1127
g10
tp1128
Rp1129
(I1
(tg16
I00
S'\xb0!;\x8a%V!A'
p1130
tp1131
bsS'\\tan(\\theta_{max})'
p1132
g22
(g16
S'V\xcd\x9e^\x14&\xd1?'
p1133
tp1134
Rp1135
sS'\\rho_{TO}'
p1136
g7
(g8
(I0
tp1137
g10
tp1138
Rp1139
(I1
(tg16
I00
S'L&\x9a\x99\x99\x99\xf3?'
p1140
tp1141
bsS'T_s'
p1142
g7
(g8
(I0
tp1143
g10
tp1144
Rp1145
(I1
(I2
I1
tp1146
g16
I00
S'\x00q\xf0\x9f\x99\x99[@rk\xf0\x9f\x99\x99[@'
p1147
tp1148
bsS'V_{nose}'
p1149
g7
(g8
(I0
tp1150
g10
tp1151
Rp1152
(I1
(tg16
I00
S'\xa0\xb7XS\r\xd0\x97?'
p1153
tp1154
bsS'x_{vbend}'
p1155
g7
(g8
(I0
tp1156
g10
tp1157
Rp1158
(I1
(tg16
I00
S'\x01\xa9q\xd3B\xa0X@'
p1159
tp1160
bsS'W_{lugg}'
p1161
g7
(g8
(I0
tp1162
g10
tp1163
Rp1164
(I1
(I1
tp1165
g16
I00
S'\xd8T@d7\xb6\xb4@'
p1166
tp1167
bsS'a'
p1168
g7
(g8
(I0
tp1169
g10
tp1170
Rp1171
(I1
(I2
I1
tp1172
g16
I00
S"\t\x99='!\x88r@\xc5N>'!\x88r@"
p1173
tp1174
bsS'W_{mg}'
p1175
g7
(g8
(I0
tp1176
g10
tp1177
Rp1178
(I1
(tg16
I00
S'\xa3\xfd\xf0\x08\rf\xc8@'
p1179
tp1180
bsS'hft'
p1181
g7
(g8
(I0
tp1182
g10
tp1183
Rp1184
(I1
(I2
I1
tp1185
g16
I00
S'%\xf5\xea\xff\xff\x16\xe1@%\xf5\xea\xff\xff\x16\xe1@'
p1186
tp1187
bsS'W_{wa,m}'
p1188
g7
(g8
(I0
tp1189
g10
tp1190
Rp1191
(I1
(tg16
I00
S'r1-\xd5\x07\xd7o@'
p1192
tp1193
bsS'q'
p1194
g22
(g16
S'\x00\xee\xc9wff\xf2?'
p1195
tp1196
Rp1197
sS'\\tau_{vt}'
p1198
g22
(g16
S'g\x9e$\x11\x85\xeb\xc1?'
p1199
tp1200
Rp1201
sS'\\lambda_{cone}'
p1202
g22
(g16
S'\t\xf9\x17\x00\x00\x00\xf0?'
p1203
tp1204
Rp1205
sS'W_{shell}'
p1206
g7
(g8
(I0
tp1207
g10
tp1208
Rp1209
(I1
(tg16
I00
S'\xb1\x87]I\x19\x17\xad@'
p1210
tp1211
bsS'd_{t_m}'
p1212
g7
(g8
(I0
tp1213
g10
tp1214
Rp1215
(I1
(tg16
I00
S'\xa37\x12\\\x91\xd5E@'
p1216
tp1217
bsS'L_{w_n}'
p1218
g7
(g8
(I0
tp1219
g10
tp1220
Rp1221
(I1
(tg16
I00
S'\xd4~\xb1\xe6j2\xd0@'
p1222
tp1223
bsS'W_{f_{cruise}}'
p1224
g7
(g8
(I0
tp1225
g10
tp1226
Rp1227
(I1
(I1
tp1228
g16
I00
S'\xddbLH\xd3\t\xd7@'
p1229
tp1230
bsS'D_{wing}'
p1231
g7
(g8
(I0
tp1232
g10
tp1233
Rp1234
(I1
(I2
I1
tp1235
g16
I00
S'i@a\xbb}\xe6\xcc@\x9b\x86\x0c\xc4?\x87\xcb@'
p1236
tp1237
bsS"W''_{insul}"
p1238
g22
(g16
S'\x1c\xa5\x0c\x00\x00\x00\xf0?'
p1239
tp1240
Rp1241
sS'R_{atm}'
p1242
g7
(g8
(I0
tp1243
g10
tp1244
Rp1245
(I1
(I2
I1
tp1246
g16
I00
S'a\xf6\x17\x00\x00\x00\xf0?\x15\xf6\x17\x00\x00\x00\xf0?'
p1247
tp1248
bsS'W_{window}'
p1249
g7
(g8
(I0
tp1250
g10
tp1251
Rp1252
(I1
(tg16
I00
S'I\x1a\xdd\xbf\xaf\x90\xa2@'
p1253
tp1254
bsS'C_{HT}'
p1255
g22
(g16
S'F\xb5\x06\x00\x00\x00\xf0?'
p1256
tp1257
Rp1258
sS'W_{tail}'
p1259
g7
(g8
(I0
tp1260
g10
tp1261
Rp1262
(I1
(tg16
I00
S'\x90\x8b\x0bH;\x13\xb7@'
p1263
tp1264
bsS'f_{padd}'
p1265
g22
(g16
S'\xc3\xf0hfff\xd6?'
p1266
tp1267
Rp1268
sS'\\rho_{fuel}'
p1269
g7
(g8
(I0
tp1270
g10
tp1271
Rp1272
(I1
(tg16
I00
S'\xd4\xb3\n\x00\x00\x88\x89@'
p1273
tp1274
bsS'W_{ms}'
p1275
g7
(g8
(I0
tp1276
g10
tp1277
Rp1278
(I1
(tg16
I00
S'\xe3\x11Pof&\x82@'
p1279
tp1280
bsS'n_{seat}'
p1281
g22
(g16
S'\x00\x00\x00\x00\x00\x80f@'
p1282
tp1283
Rp1284
sS'x_b'
p1285
g7
(g8
(I0
tp1286
g10
tp1287
Rp1288
(I1
(tg16
I00
S'\xa3\xc8\xab2`\x84/@'
p1289
tp1290
bsS'f_{seat}'
p1291
g22
(g16
S'\\\xb8\x06\x00\x00\x00\xf0?'
p1292
tp1293
Rp1294
sS't_{nacelle}'
p1295
g7
(g8
(I0
tp1296
g10
tp1297
Rp1298
(I1
(tg16
I00
S'\xb6&+333\xc3?'
p1299
tp1300
bsS'I_m'
p1301
g7
(g8
(I0
tp1302
g10
tp1303
Rp1304
(I1
(tg16
I00
S'f\x17\xc7\xc7\xfa\x7f\xdb>'
p1305
tp1306
bsS'TSFC'
p1307
g22
(g16
S'\x02\x17\x18\x00\x00\x00\xf0?'
p1308
tp1309
Rp1310
sS'c_{m_{w}}'
p1311
g7
(g8
(I0
tp1312
g10
tp1313
Rp1314
(I1
(I2
I1
tp1315
g16
I00
S'ffffff\xfe?ffffff\xfe?'
p1316
tp1317
bsS't_{web}'
p1318
g22
(g16
S'\x8a\x90\xbc\x86j0H?'
p1319
tp1320
Rp1321
sS'W_{HT_system}'
p1322
g7
(g8
(I0
tp1323
g10
tp1324
Rp1325
(I1
(tg16
I00
S'\x9c;Q\xeb}V\x87@'
p1326
tp1327
bsS'S_{bulk}'
p1328
g7
(g8
(I0
tp1329
g10
tp1330
Rp1331
(I1
(tg16
I00
S'\xb1\xa6\xc5\x85\xf5)6@'
p1332
tp1333
bsS'W_{start}'
p1334
g7
(g8
(I0
tp1335
g10
tp1336
Rp1337
(I1
(I2
I1
tp1338
g16
I00
S'\xda\xab\xb6Y\xb24\x02A+\x92\xc4\xe3\x17\xc4\x00A'
p1339
tp1340
bsS'V_{vt_{min}}'
p1341
g22
(g16
S'\xc8\xcb\xea\xd2MbP?'
p1342
tp1343
Rp1344
sS'CruiseAlt'
p1345
g7
(g8
(I0
tp1346
g10
tp1347
Rp1348
(I1
(tg16
I00
S'\xad\xc2\xeb\xfeKH\xb49'
p1349
tp1350
bsS'l_{floor}'
p1351
g7
(g8
(I0
tp1352
g10
tp1353
Rp1354
(I1
(tg16
I00
S'\x0b@[7d\x0e<@'
p1355
tp1356
bsS'c_{l_{vtEO}}'
p1357
g22
(g16
S'3\xe5\x06\x00\x00\x00\xe0?'
p1358
tp1359
Rp1360
sS'W_{cargo}'
p1361
g22
(g16
S'\x02\xb5\x06\x00\x00\x00\xf0?'
p1362
tp1363
Rp1364
sS'V_{cone}'
p1365
g7
(g8
(I0
tp1366
g10
tp1367
Rp1368
(I1
(tg16
I00
S'8i\x02\xdbn\x0f\xc9?'
p1369
tp1370
bsS'p_{oleo}'
p1371
g7
(g8
(I0
tp1372
g10
tp1373
Rp1374
(I1
(tg16
I00
S'\xb4\xb3\xe6\xff\xff\x1f\x9c@'
p1375
tp1376
bsS'\\eta_{o}'
p1377
g7
(g8
(I0
tp1378
g10
tp1379
Rp1380
(I1
(I2
I1
tp1381
g16
I00
S'\x80\xf9\x9d-\xed\x84\xba?\x80\xf9\x9d-\xed\x84\xba?'
p1382
tp1383
bsS'BLI_{wakebenefit}'
p1384
g22
(g16
S'\xc8\xb1\xb7G\xe1z\x94?'
p1385
tp1386
Rp1387
sS'I_{v_{shell}}'
p1388
g7
(g8
(I0
tp1389
g10
tp1390
Rp1391
(I1
(tg16
I00
S'QW\xe5\xe4\x8a1\x9e?'
p1392
tp1393
bsS'SM_{min}'
p1394
g22
(g16
S'h\x12\x03\x00\x00\x00\xf0?'
p1395
tp1396
Rp1397
sS'W_{HT}'
p1398
g7
(g8
(I0
tp1399
g10
tp1400
Rp1401
(I1
(tg16
I00
S'\xd3\xcal\x10z\xfcd@'
p1402
tp1403
bsS'z_{bre}'
p1404
g7
(g8
(I0
tp1405
g10
tp1406
Rp1407
(I1
(I2
I1
tp1408
g16
I00
S'\xafu\x04BE\x07\xb5?X\x13\x9d\x82\xd1\xa3\xb6?'
p1409
tp1410
bsS'MinCruiseAlt'
p1411
g22
(g16
S'\x14\xf7\x17\x00\x00\x00\xf0?'
p1412
tp1413
Rp1414
sS'w_{aisle}'
p1415
g7
(g8
(I0
tp1416
g10
tp1417
Rp1418
(I1
(tg16
I00
S'\x0e\xe0\x17\x85\xebQ\xe0?'
p1419
tp1420
bsS'x_{hbend_{Land}}'
p1421
g7
(g8
(I0
tp1422
g10
tp1423
Rp1424
(I1
(tg16
I00
S'P\x98\x0eI_#T@'
p1425
tp1426
bsS'V_{cabin}'
p1427
g7
(g8
(I0
tp1428
g10
tp1429
Rp1430
(I1
(tg16
I00
S'\xa8\xf4\xc46t\x88t@'
p1431
tp1432
bsS'T'
p1433
g7
(g8
(I0
tp1434
g10
tp1435
Rp1436
(I1
(tg16
I00
S'\xbf\x9cd(\xa9\xab\x13@'
p1437
tp1438
bsS'\\lambda_{ht}'
p1439
g22
(g16
S'\x15\xf6\x17\x00\x00\x00\xf0?'
p1440
tp1441
Rp1442
sS'I_{z}'
p1443
g7
(g8
(I0
tp1444
g10
tp1445
Rp1446
(I1
(tg16
I00
S'\xb6\xab\xa7\x1d\xd8O\x11B'
p1447
tp1448
bsS'A_{fuse}'
p1449
g7
(g8
(I0
tp1450
g10
tp1451
Rp1452
(I1
(tg16
I00
S'\x7f\xfb?S\x80*&@'
p1453
tp1454
bsS'D_{wakefraction}'
p1455
g22
(g16
S'pT\xeeQ\xb8\x1e\xd5?'
p1456
tp1457
Rp1458
sS'f_{string}'
p1459
g22
(g16
S'\x15\xf6\x17\x00\x00\x00\xf0?'
p1460
tp1461
Rp1462
sS'h_{db}'
p1463
g7
(g8
(I0
tp1464
g10
tp1465
Rp1466
(I1
(tg16
I00
S'4\xf0\xe7\xb9\x80"\xfe?'
p1467
tp1468
bsS't_{cap}'
p1469
g22
(g16
S'\x19O]\x13\xdbiE?'
p1470
tp1471
Rp1472
sS'f_{frame}'
p1473
g22
(g16
S'\x80\x0c\x04\x00\x00\x00\xf0?'
p1474
tp1475
Rp1476
sS'L/D'
p1477
g7
(g8
(I0
tp1478
g10
tp1479
Rp1480
(I1
(I2
I1
tp1481
g16
I00
S'Y\xe8\xec\x15\xef\xc97@d:\xf0\xec\xd546@'
p1482
tp1483
bsS'x_w'
p1484
g7
(g8
(I0
tp1485
g10
tp1486
Rp1487
(I1
(tg16
I00
S's\xfa"\xd8e\xd70@'
p1488
tp1489
bsS'W_{dry}'
p1490
g7
(g8
(I0
tp1491
g10
tp1492
Rp1493
(I1
(I1
tp1494
g16
I00
S'I\xa0\x14q~\xf1\xf3@'
p1495
tp1496
bsS'C_{L_{hmax}}'
p1497
g22
(g16
S'\xa98\xfd\xff\xff\xff\xff?'
p1498
tp1499
Rp1500
sS'W_{fuse}'
p1501
g7
(g8
(I0
tp1502
g10
tp1503
Rp1504
(I1
(tg16
I00
S'*\x1f]\x85V\xa3\xe0@'
p1505
tp1506
bsS'\\tan(\\Lambda)'
p1507
g22
(g16
S'u\rH\xbf\x027\xdf?'
p1508
tp1509
Rp1510
sS'n_{rows}'
p1511
g22
(g16
S'\x96\xee\x06\x00\x00\x00>@'
p1512
tp1513
Rp1514
sS'\\pi_{M-fac}'
p1515
g22
(g16
S'\x00\x00\x00\x00\x00\x00\xf0?'
p1516
tp1517
Rp1518
sS'B_{0v}'
p1519
g7
(g8
(I0
tp1520
g10
tp1521
Rp1522
(I1
(tg16
I00
S'5C\xc3]\x94\x8c\x81?'
p1523
tp1524
bsS'W_{checked}'
p1525
g22
(g16
S'8\xca\r\x00\x00\x00\xf0?'
p1526
tp1527
Rp1528
sS'\\sigma_{max,shear}'
p1529
g22
(g16
S'P\xb5\x06\x00\x00\x00\xf0?'
p1530
tp1531
Rp1532
sS'D_{wm}'
p1533
g7
(g8
(I0
tp1534
g10
tp1535
Rp1536
(I1
(tg16
I00
S'\x81\xfeW2\xdd\x17\xc6@'
p1537
tp1538
bsS"W'_{window}"
p1539
g22
(g16
S'\x04\xb7\x06\x00\x00\x00\xf0?'
p1540
tp1541
Rp1542
sS'f_{VT}'
p1543
g22
(g16
S'\x96\xdb\x8e\x99\x99\x99\xd9?'
p1544
tp1545
Rp1546
sS'C_{L}'
p1547
g7
(g8
(I0
tp1548
g10
tp1549
Rp1550
(I1
(I2
I1
tp1551
g16
I00
S'({\x82V\x89\xf9\xe3?B\xc4o\x15;\xe2\xe2?'
p1552
tp1553
bsS'f_{add,n}'
p1554
g22
(g16
S'v\xf0\xf5\xff\xff\xff\xf7?'
p1555
tp1556
Rp1557
sS'W_{end}'
p1558
g7
(g8
(I0
tp1559
g10
tp1560
Rp1561
(I1
(I2
I1
tp1562
g16
I00
S'+\x92\xc4\xe3\x17\xc4\x00Af\xf1\xbf\xe9]\xa5\xfe@'
p1563
tp1564
bsS'\\tau_{cone}'
p1565
g7
(g8
(I0
tp1566
g10
tp1567
Rp1568
(I1
(tg16
I00
S'\x89hVO\xfb\xa9\x98A'
p1569
tp1570
bsS'l_{ht}'
p1571
g7
(g8
(I0
tp1572
g10
tp1573
Rp1574
(I1
(tg16
I00
S'S\x8d\xf4F\xbeE2@'
p1575
tp1576
bsS'W_{ns}'
p1577
g7
(g8
(I0
tp1578
g10
tp1579
Rp1580
(I1
(tg16
I00
S'\x89tl?\x96.P@'
p1581
tp1582
bsS'A_{db}'
p1583
g7
(g8
(I0
tp1584
g10
tp1585
Rp1586
(I1
(tg16
I00
S'\x171\xc55B\x9e\xaa>'
p1587
tp1588
bsS'AR_{ht}'
p1589
g22
(g16
S'\x13\xec\xb8+\x00\x00\x10@'
p1590
tp1591
Rp1592
sS't_n'
p1593
g7
(g8
(I0
tp1594
g10
tp1595
Rp1596
(I1
(tg16
I00
S'\x0e\xa8\xb8i\xc8\x1ej?'
p1597
tp1598
bsS'V_{floor}'
p1599
g7
(g8
(I0
tp1600
g10
tp1601
Rp1602
(I1
(tg16
I00
S'rp\xa5\xc6<\x00\xc5?'
p1603
tp1604
bsS't_m'
p1605
g7
(g8
(I0
tp1606
g10
tp1607
Rp1608
(I1
(tg16
I00
S'\x18\x00\xfa(\x9d|\x80?'
p1609
tp1610
bsS'A_{2h_{Land}}'
p1611
g22
(g16
S'\xf0\xfc\x87\x9d\x8d\xc7\x1d?'
p1612
tp1613
Rp1614
sS'\\tan(\\gamma)'
p1615
g22
(g16
S'\x15\xf6\x17\x00\x00\x00\xf0?'
p1616
tp1617
Rp1618
sS'\\Delta R_{fuse}'
p1619
g22
(g16
S'\x18\xf6\x17\x00\x00\x00\xf0?'
p1620
tp1621
Rp1622
sS'\\bar{c}_{vt}'
p1623
g7
(g8
(I0
tp1624
g10
tp1625
Rp1626
(I1
(tg16
I00
S"\xb5p\xf0'\xff\xd8\x11@"
p1627
tp1628
bsS't_{shell}'
p1629
g7
(g8
(I0
tp1630
g10
tp1631
Rp1632
(I1
(tg16
I00
S'\x1eY\x01\xff\xf34W?'
p1633
tp1634
bsS'p_{o}'
p1635
g7
(g8
(I0
tp1636
g10
tp1637
Rp1638
(I1
(I2
I1
tp1639
g16
I00
S'\x08\x17\xdb4\xfe\xf5\xda@"\xfcoo\xf9\xc3\xda@'
p1640
tp1641
bsS'\\nu'
p1642
g22
(g16
S'\x87K\xe3\xe3\xe7\x1a\xf1?'
p1643
tp1644
Rp1645
sS'C_{L_{hfcG}}'
p1646
g22
(g16
S'\x00\x00\x00\x00\x00\x00\xf0?'
p1647
tp1648
Rp1649
sS'tmin'
p1650
g7
(g8
(I0
tp1651
g10
tp1652
Rp1653
(I1
(I2
I1
tp1654
g16
I00
S'\xd0\xe7A\x05\tfh@\x91\xf8@\x05\tfh@'
p1655
tp1656
bsS'b_{vt}'
p1657
g7
(g8
(I0
tp1658
g10
tp1659
Rp1660
(I1
(tg16
I00
S"\x92'bhUF @"
p1661
tp1662
bsS'V_{hbend_{b}}'
p1663
g7
(g8
(I0
tp1664
g10
tp1665
Rp1666
(I1
(tg16
I00
S'\x87\x82K\xdc\xbb2\xb9?'
p1667
tp1668
bsS'c_{root_{vt}}'
p1669
g7
(g8
(I0
tp1670
g10
tp1671
Rp1672
(I1
(tg16
I00
S'\x141.|\xbe\t\x19@'
p1673
tp1674
bsS'A_{hbendb_{Land}}'
p1675
g7
(g8
(I0
tp1676
g10
tp1677
Rp1678
(I1
(tg16
I00
S'\xa1!\xc5\x90Ks\x99?'
p1679
tp1680
bsS'Re_{c_h}'
p1681
g7
(g8
(I0
tp1682
g10
tp1683
Rp1684
(I1
(I2
I1
tp1685
g16
I00
S'\xec\xd6}z\xf2\x02gAz\xae\x7fz\xf2\x02gA'
p1686
tp1687
bsS'x_{wing}'
p1688
g7
(g8
(I0
tp1689
g10
tp1690
Rp1691
(I1
(tg16
I00
S's\xfa"\xd8e\xd70@'
p1692
tp1693
bsS'\\sigma_{skin}'
p1694
g7
(g8
(I0
tp1695
g10
tp1696
Rp1697
(I1
(tg16
I00
S'\x89hVO\xfb\xa9\x98A'
p1698
tp1699
bsS'q_{ht}'
p1700
g22
(g16
S'O.\x03z\x02\x00\xf4?'
p1701
tp1702
Rp1703
sS'F_{w_n}'
p1704
g22
(g16
S'\x0cj\x81\xa6BH`@'
p1705
tp1706
Rp1707
sS'TotalTime'
p1708
g7
(g8
(I0
tp1709
g10
tp1710
Rp1711
(I1
(tg16
I00
S'\xd9\x8c\xa09Y>)F'
p1712
tp1713
bsS'W_{engsys}'
p1714
g7
(g8
(I0
tp1715
g10
tp1716
Rp1717
(I1
(tg16
I00
S'N\xe1\xb2\xccL\xb8\xc6@'
p1718
tp1719
bsS'c_{root}'
p1720
g7
(g8
(I0
tp1721
g10
tp1722
Rp1723
(I1
(tg16
I00
S'\xdf~\xe5\xef[S\x11@'
p1724
tp1725
bsS'l_{vt}'
p1726
g7
(g8
(I0
tp1727
g10
tp1728
Rp1729
(I1
(tg16
I00
S'\xf9\x05x\x1b\rI.@'
p1730
tp1731
bsS'x_{CG_{min}}'
p1732
g7
(g8
(I0
tp1733
g10
tp1734
Rp1735
(I1
(tg16
I00
S'\x94\xd4\th"L1@'
p1736
tp1737
bsS'V_1'
p1738
g7
(g8
(I0
tp1739
g10
tp1740
Rp1741
(I1
(tg16
I00
S'<\xa4\xf9\xff\xff\x7fQ@'
p1742
tp1743
bsS'g'
p1744
g22
(g16
S'\xa2\x17\x0b\x00\x00\x00\xf0?'
p1745
tp1746
Rp1747
sS't_{db}'
p1748
g7
(g8
(I0
tp1749
g10
tp1750
Rp1751
(I1
(tg16
I00
S'\xa0\xbd\x7f"\x1e*\x8c>'
p1752
tp1753
bsS'V_{hbend_{f}}'
p1754
g7
(g8
(I0
tp1755
g10
tp1756
Rp1757
(I1
(tg16
I00
S'\xb3q\xa2\x88\xfas\xad?'
p1758
tp1759
bsS'x_{CG_{lg}}'
p1760
g7
(g8
(I0
tp1761
g10
tp1762
Rp1763
(I1
(tg16
I00
S'\xf3\xdc\xa5\x0bO\xbc2@'
p1764
tp1765
bsS'T_{sl}'
p1766
g7
(g8
(I0
tp1767
g10
tp1768
Rp1769
(I1
(I2
I1
tp1770
g16
I00
S'h\xae\xf3_f\x02r@\x141\xf4_f\x02r@'
p1771
tp1772
bsS'C_{L_{vyaw}}'
p1773
g22
(g16
S'a\x08\xdfz\x14\xae\x01@'
p1774
tp1775
Rp1776
sS'W_{hbend}'
p1777
g7
(g8
(I0
tp1778
g10
tp1779
Rp1780
(I1
(tg16
I00
S'\xb6\xd0\x94\x83\xcf\xbc\x92@'
p1781
tp1782
bsS'V_{vbend}'
p1783
g7
(g8
(I0
tp1784
g10
tp1785
Rp1786
(I1
(tg16
I00
S'\xae@r-\x04\x89\xd2?'
p1787
tp1788
bsS'\\rho_{skin}'
p1789
g7
(g8
(I0
tp1790
g10
tp1791
Rp1792
(I1
(tg16
I00
S'}\xf0\xeb\xff\xff\x17\xa5@'
p1793
tp1794
bsS'I_{z_{fuse}}'
p1795
g7
(g8
(I0
tp1796
g10
tp1797
Rp1798
(I1
(I1
tp1799
g16
I00
S'\xa3\x99\xde:H-\xd3A'
p1800
tp1801
bsS'x_{shell1}'
p1802
g7
(g8
(I0
tp1803
g10
tp1804
Rp1805
(I1
(tg16
I00
S'\x1cv\xec\xd2Mb\x18@'
p1806
tp1807
bsS'Re_w'
p1808
g7
(g8
(I0
tp1809
g10
tp1810
Rp1811
(I1
(I2
I1
tp1812
g16
I00
S'F=\xf2\xc8"\x99tAu\xe3\xf3\xc8"\x99tA'
p1813
tp1814
bsS'\\tau_{floor}'
p1815
g7
(g8
(I0
tp1816
g10
tp1817
Rp1818
(I1
(tg16
I00
S'\x03\x19}O\xfb\xa9\xa8A'
p1819
tp1820
bsS'\\gamma'
p1821
g7
(g8
(I0
tp1822
g10
tp1823
Rp1824
(I1
(I2
I1
tp1825
g16
I00
S'\x07\xe6\xed_ff\xf6?\x13!\xfd_ff\xf6?'
p1826
tp1827
bsS'x_{tail}'
p1828
g7
(g8
(I0
tp1829
g10
tp1830
Rp1831
(I1
(tg16
I00
S'\xca\xd5_\x87Y\xc3@@'
p1832
tp1833
bsS'c_{tip_{ht}}'
p1834
g7
(g8
(I0
tp1835
g10
tp1836
Rp1837
(I1
(tg16
I00
S'\x98\x90\x97R\x1e\xf5\xe5?'
p1838
tp1839
bsS'r_{wb}'
p1840
g22
(g16
S'\x13\xf6\x17\x00\x00\x00\xf0?'
p1841
tp1842
Rp1843
sS'TipReduct'
p1844
g22
(g16
S'"\xdf\x06\x00\x00\x00\xf0?'
p1845
tp1846
Rp1847
sS'l_{cone}'
p1848
g7
(g8
(I0
tp1849
g10
tp1850
Rp1851
(I1
(tg16
I00
S'\xc6\xed\x86d\x96\n\x19@'
p1852
tp1853
bsS'F_TO'
p1854
g7
(g8
(I0
tp1855
g10
tp1856
Rp1857
(I1
(tg16
I00
S'<\xe0\xd1\xff\x7f~\xff@'
p1858
tp1859
bsS'I_{z_{wing}}'
p1860
g7
(g8
(I0
tp1861
g10
tp1862
Rp1863
(I1
(I1
tp1864
g16
I00
S'\xed\xbc\xf4\xe7\x82\x85\xdaA'
p1865
tp1866
bsS'\\rho_{cap}'
p1867
g22
(g16
S'\x00\x00\x00\x00\x00\x00\xf0?'
p1868
tp1869
Rp1870
sS'r_{M_h}'
p1871
g22
(g16
S'\x02\xb5\x06\x00\x00\x00\xf0?'
p1872
tp1873
Rp1874
sS'C_{D_{0_h}}'
p1875
g7
(g8
(I0
tp1876
g10
tp1877
Rp1878
(I1
(I2
I1
tp1879
g16
I00
S'c\xba\xab\xdb\x9f\xdc\x80?\x9d_\xc4\xb1o\x93\x82?'
p1880
tp1881
bsS'M_{floor}'
p1882
g7
(g8
(I0
tp1883
g10
tp1884
Rp1885
(I1
(tg16
I00
S'9\xea\xe9\xc2a\x14 A'
p1886
tp1887
bsS'\\Delta x_m'
p1888
g7
(g8
(I0
tp1889
g10
tp1890
Rp1891
(I1
(tg16
I00
S'\xb8\xdc\xfa_\xa1\x86\xe5?'
p1892
tp1893
bsS'L_{shear}'
p1894
g7
(g8
(I0
tp1895
g10
tp1896
Rp1897
(I1
(tg16
I00
S'\x98\x80\x8b\xd5\r\x80\x01A'
p1898
tp1899
bsS'W_{wa,n}'
p1900
g7
(g8
(I0
tp1901
g10
tp1902
Rp1903
(I1
(tg16
I00
S'n\x9b\xa7\x1f@I7@'
p1904
tp1905
bsS'L_{h_{tri}}'
p1906
g7
(g8
(I0
tp1907
g10
tp1908
Rp1909
(I1
(tg16
I00
S'\xaf\x05\xdc4\xa5j\xf4@'
p1910
tp1911
bsS'D_{reduct}'
p1912
g22
(g16
S'\x90\x88\xf1\xff\xff\xff\xef?'
p1913
tp1914
Rp1915
sS'f_{lugg,1}'
p1916
g22
(g16
S'\x02\xb5\x06\x00\x00\x00\xf0?'
p1917
tp1918
Rp1919
sS'V_{ne}'
p1920
g7
(g8
(I0
tp1921
g10
tp1922
Rp1923
(I1
(tg16
I00
S'\xd4\x9f\xc4\xa3p\xfda@'
p1924
tp1925
bsS'L_{h_{rect}}'
p1926
g7
(g8
(I0
tp1927
g10
tp1928
Rp1929
(I1
(tg16
I00
S'\\*\xee\xd3\xa2*\xed@'
p1930
tp1931
bsS'\\rho_{cargo}'
p1932
g7
(g8
(I0
tp1933
g10
tp1934
Rp1935
(I1
(tg16
I00
S'\xd0\xb9\xf4\xff\xff\xbfb@'
p1936
tp1937
bsS'L_{vtEO}'
p1938
g7
(g8
(I0
tp1939
g10
tp1940
Rp1941
(I1
(tg16
I00
S'\x89\x12\xa1\\\x8a\x10\xe6@'
p1942
tp1943
bsS'D_{fuse}'
p1944
g7
(g8
(I0
tp1945
g10
tp1946
Rp1947
(I1
(I2
I1
tp1948
g16
I00
S'4\xe4\xf5\xed\xbf\xca\xbf@\xc5\xed\xfa\xed\xbf\xca\xbf@'
p1949
tp1950
bsS'L_{w_m}'
p1951
g7
(g8
(I0
tp1952
g10
tp1953
Rp1954
(I1
(tg16
I00
S'\xbe/\x86D\x04\x81\x02A'
p1955
tp1956
bsS'W_{apu}'
p1957
g7
(g8
(I0
tp1958
g10
tp1959
Rp1960
(I1
(tg16
I00
S'\x82\x16\xe0\x01\x00*\x95@'
p1961
tp1962
bsS'N_{land}'
p1963
g22
(g16
S'\xb2\xc3\xf0\xff\xff\xff\x17@'
p1964
tp1965
Rp1966
sS'V_{db}'
p1967
g7
(g8
(I0
tp1968
g10
tp1969
Rp1970
(I1
(tg16
I00
S'/\xbc\xcd\xe0\x936\xf4>'
p1971
tp1972
bsS'w_{t_m}'
p1973
g7
(g8
(I0
tp1974
g10
tp1975
Rp1976
(I1
(tg16
I00
S'\xb8\x19\xe9\xcd\xe9l\xd9?'
p1977
tp1978
bsS'r_{M_v}'
p1979
g22
(g16
S'\x18\xf6\x17\x00\x00\x00\xf0?'
p1980
tp1981
Rp1982
sS'B'
p1983
g7
(g8
(I0
tp1984
g10
tp1985
Rp1986
(I1
(tg16
I00
S'\xe6\x85\x07:2\xe8*@'
p1987
tp1988
bsS'd_{t_n}'
p1989
g7
(g8
(I0
tp1990
g10
tp1991
Rp1992
(I1
(tg16
I00
S'\xb6_\xdb|\xa7wA@'
p1993
tp1994
bsS'f_{aileron}'
p1995
g22
(g16
S'D\xb5\x06\x00\x00\x00\xf0?'
p1996
tp1997
Rp1998
sS'V_{fuel, max}'
p1999
g7
(g8
(I0
tp2000
g10
tp2001
Rp2002
(I1
(tg16
I00
S'\x99c\xad{\x93\x03N@'
p2003
tp2004
bsS'f_{slat}'
p2005
g22
(g16
S'X\xdd\x8e\x99\x99\x99\xb9?'
p2006
tp2007
Rp2008
sS'h_{nacelle}'
p2009
g7
(g8
(I0
tp2010
g10
tp2011
Rp2012
(I1
(tg16
I00
S'\xc5\x95\xf2\xff\xff\xff\xdf?'
p2013
tp2014
bsS'\\tan(\\psi)'
p2015
g22
(g16
S')h\xc9"\xcef\xff?'
p2016
tp2017
Rp2018
sS'\\Delta x_{CG}'
p2019
g22
(g16
S'\xb7[\x08\x00\x00\x00\xf0?'
p2020
tp2021
Rp2022
sS'x_{AC}'
p2023
g7
(g8
(I0
tp2024
g10
tp2025
Rp2026
(I1
(I2
I1
tp2027
g16
I00
S'\xbd\x0f\x82\xd9@\xe62@\r\x10\xc5\xb2:\xe52@'
p2028
tp2029
bsS'I_{z_{tail}}'
p2030
g7
(g8
(I0
tp2031
g10
tp2032
Rp2033
(I1
(I1
tp2034
g16
I00
S'\x1f\x98\x9c\x1ePm\xa6A'
p2035
tp2036
bsS'W_{Load}'
p2037
g7
(g8
(I0
tp2038
g10
tp2039
Rp2040
(I1
(I2
I1
tp2041
g16
I00
S'\x1a\xbf\x98\xf0\xff\x07\xba@\xcf~\x0f\xa8\x01\x9c\xb8@'
p2042
tp2043
bsS'R'
p2044
g7
(g8
(I0
tp2045
g10
tp2046
Rp2047
(I1
(I2
I1
tp2048
g16
I00
S'\x19\xf6\x17\x00\x00\x00\xf0?\xa4\xf6\x17\x00\x00\x00\xf0?'
p2049
tp2050
bsS'\\Delta P_{over}'
p2051
g7
(g8
(I0
tp2052
g10
tp2053
Rp2054
(I1
(tg16
I00
S'.\xd5\x01\x81\x95\xc3 @'
p2055
tp2056
bsS'W_{wing_system}'
p2057
g7
(g8
(I0
tp2058
g10
tp2059
Rp2060
(I1
(tg16
I00
S'\xb2\r7\x99\xe0\xce\xec@'
p2061
tp2062
bsS'W_{cap}'
p2063
g7
(g8
(I0
tp2064
g10
tp2065
Rp2066
(I1
(tg16
I00
S'?~\x84\x83\xbd\x08\xe1@'
p2067
tp2068
bsS'z_{CG}'
p2069
g22
(g16
S'\xf0\t\x08\x00\x00\x00\xf0?'
p2070
tp2071
Rp2072
sS'\\sigma_{y_c}'
p2073
g7
(g8
(I0
tp2074
g10
tp2075
Rp2076
(I1
(tg16
I00
S'\x0b\x00\x00\x80\xa1\x03\xbcA'
p2077
tp2078
bsS'\\lambda_{vt}'
p2079
g22
(g16
S'#\xf6\x17\x00\x00\x00\xf0?'
p2080
tp2081
Rp2082
sS'L_{h_{rect_{out}}}'
p2083
g7
(g8
(I0
tp2084
g10
tp2085
Rp2086
(I1
(tg16
I00
S'\x9a2\xd7\xc4\xa6*\xed@'
p2087
tp2088
bsS'f_{fadd}'
p2089
g22
(g16
S'[\xb5\x06\x00\x00\x00\xf0?'
p2090
tp2091
Rp2092
sS'd_{fan}'
p2093
g7
(g8
(I0
tp2094
g10
tp2095
Rp2096
(I1
(tg16
I00
S'\x93B\xf4\xff\xff\xff\xfb?'
p2097
tp2098
bsg10
g7
(g8
(I0
tp2099
g10
tp2100
Rp2101
(I1
(tg16
I00
S'\x9eR1%1\xe8A@'
p2102
tp2103
bsS'q_{vt}'
p2104
g22
(g16
S'\x10}Y\xe8\xcc\xcc\xf4?'
p2105
tp2106
Rp2107
sS'S_{nose}'
p2108
g7
(g8
(I0
tp2109
g10
tp2110
Rp2111
(I1
(tg16
I00
S'\xb1\xa6\xc5\x85\xf5)6@'
p2112
tp2113
bsS'f_{hpesys}'
p2114
g22
(g16
S'\x17\xf6\x17\x00\x00\x00\xf0?'
p2115
tp2116
Rp2117
sS'M_{fuseD}'
p2118
g22
(g16
S'\x9a\x99\x99\x99\x99\x99\xe9?'
p2119
tp2120
Rp2121
sS'\\tan(\\Lambda_{ht})'
p2122
g22
(g16
S'\xb2\x9ai\x13\xfc\xd7\xdd?'
p2123
tp2124
Rp2125
sS'W_{cone}'
p2126
g7
(g8
(I0
tp2127
g10
tp2128
Rp2129
(I1
(tg16
I00
S'I\xb1\xab\xfa\x17%\x9d@'
p2130
tp2131
bsS'C_{L_{wmax}}'
p2132
g22
(g16
S'\x15\xf6\x17\x00\x00\x00\xf0?'
p2133
tp2134
Rp2135
sS'C_{wing}'
p2136
g22
(g16
S'\xeb\x88\xf2\xff\xff\xff\xef?'
p2137
tp2138
Rp2139
sS'\\rho_{floor}'
p2140
g22
(g16
S'\xd4\xb5\x06\x00\x00\x00\xf0?'
p2141
tp2142
Rp2143
sS'z_{wing}'
p2144
g22
(g16
S'\xa6F\xff\xff\xff\xff\xef?'
p2145
tp2146
Rp2147
sS'\\alpha_w'
p2148
g7
(g8
(I0
tp2149
g10
tp2150
Rp2151
(I1
(I2
I1
tp2152
g16
I00
S'\x85!\x1a\xc2\xe7\x1d\xb8?\x1e\xe61o\xae\xcc\xb6?'
p2153
tp2154
bsS'l_n'
p2155
g7
(g8
(I0
tp2156
g10
tp2157
Rp2158
(I1
(tg16
I00
S'\\\xa3@<\x7f\xf9\xf9?'
p2159
tp2160
bsS'W_{skin}'
p2161
g7
(g8
(I0
tp2162
g10
tp2163
Rp2164
(I1
(tg16
I00
S'\xf4G\x87\xd4%)\xa0@'
p2165
tp2166
bsS'l_m'
p2167
g7
(g8
(I0
tp2168
g10
tp2169
Rp2170
(I1
(tg16
I00
S'\x02\x91\x0fP*\xb5\x02@'
p2171
tp2172
bsS'W_{fix}'
p2173
g22
(g16
S'\x80\xb7\x06\x00\x00\x00\xf0?'
p2174
tp2175
Rp2176
sS'\\Delta x_{AC_{wing}}'
p2177
g7
(g8
(I0
tp2178
g10
tp2179
Rp2180
(I1
(tg16
I00
S'|g\xf9\x00h\x06\x06@'
p2181
tp2182
bsS'w_{seat}'
p2183
g7
(g8
(I0
tp2184
g10
tp2185
Rp2186
(I1
(tg16
I00
S'b\x8b\xf2\xff\xff\xff\xdf?'
p2187
tp2188
bsS'A_{1h_{Land}}'
p2189
g7
(g8
(I0
tp2190
g10
tp2191
Rp2192
(I1
(tg16
I00
S'\xc1\x8e\xc1\xcb\xedW@?'
p2193
tp2194
bsS'f_{lete}'
p2195
g22
(g16
S'\xaa\xb5\x06\x00\x00\x00\xf0?'
p2196
tp2197
Rp2198
sS'C_{D_{wm}}'
p2199
g22
(g16
S'\x00\x00\x00\x00\x00\x00\xe0?'
p2200
tp2201
Rp2202
sS'thr'
p2203
g7
(g8
(I0
tp2204
g10
tp2205
Rp2206
(I1
(I2
I1
tp2207
g16
I00
S'\xf1\xa1\x9b\x05p\x06\n@\xbc\xa2\x9a\x05p\x06\n@'
p2208
tp2209
bsS'A_{hbendb_{MLF}}'
p2210
g7
(g8
(I0
tp2211
g10
tp2212
Rp2213
(I1
(tg16
I00
S'\x93\x8e\x1dj+\x0c\x92?'
p2214
tp2215
bsS'W_{nw}'
p2216
g7
(g8
(I0
tp2217
g10
tp2218
Rp2219
(I1
(tg16
I00
S'\x1bxm\\L\xe5i@'
p2220
tp2221
bsS'f_{wingfuel}'
p2222
g22
(g16
S'E\xb7\x06\x00\x00\x00\xf0?'
p2223
tp2224
Rp2225
sS'V_{hbend}'
p2226
g7
(g8
(I0
tp2227
g10
tp2228
Rp2229
(I1
(tg16
I00
S'\x1e\xed\xc1\xaaE\xc7\xc9?'
p2230
tp2231
bsS'\\eta_s'
p2232
g22
(g16
S'\x19\xf6\x17\x00\x00\x00\xf0?'
p2233
tp2234
Rp2235
sS'r_E'
p2236
g22
(g16
S'\x16\xf6\x17\x00\x00\x00\xf0?'
p2237
tp2238
Rp2239
sS'x_{CG}'
p2240
g7
(g8
(I0
tp2241
g10
tp2242
Rp2243
(I1
(I2
I1
tp2244
g16
I00
S'\xf6_\xe0\x86,b2@z\xfa\x1c`\x18^2@'
p2245
tp2246
bsS'C_{D_h}'
p2247
g7
(g8
(I0
tp2248
g10
tp2249
Rp2250
(I1
(I2
I1
tp2251
g16
I00
S'X\x97\x9c\xec\xd6\xe0\x80?H\xe5\xacP<\xe6\x83?'
p2252
tp2253
bsS'W_{seat}'
p2254
g7
(g8
(I0
tp2255
g10
tp2256
Rp2257
(I1
(tg16
I00
S'\xbf;\xaf,\x00<\xae@'
p2258
tp2259
bsS'\\rho_{cone}'
p2260
g7
(g8
(I0
tp2261
g10
tp2262
Rp2263
(I1
(tg16
I00
S'\x86$\xe3\xff\xff\x17\xa5@'
p2264
tp2265
bsS'A_{tri}'
p2266
g7
(g8
(I0
tp2267
g10
tp2268
Rp2269
(I1
(tg16
I00
S'/lw\x16f{P@'
p2270
tp2271
bsS'f_{L_{t}}'
p2272
g7
(g8
(I0
tp2273
g10
tp2274
Rp2275
(I1
(I2
I1
tp2276
g16
I00
S'\x13\xf6\x17\x00\x00\x00\xf0?\x0f\xf6\x17\x00\x00\x00\xf0?'
p2277
tp2278
bsS'w_{floor}'
p2279
g7
(g8
(I0
tp2280
g10
tp2281
Rp2282
(I1
(tg16
I00
S'\xec\xcbH\xe4\x14\xae\xfd?'
p2283
tp2284
bsS'\\cos(\\Lambda_{ht})^3'
p2285
g22
(g16
S'\xfa\x9bK\x9cj\xd2\xe7?'
p2286
tp2287
Rp2288
sS'r_h'
p2289
g22
(g16
S'\x00\x00\x00\x00\x00\x00\xf0?'
p2290
tp2291
Rp2292
sS'x_{hbend_{MLF}}'
p2293
g7
(g8
(I0
tp2294
g10
tp2295
Rp2296
(I1
(tg16
I00
S'\xd7\x11\x95\xca\xf3\xaeQ@'
p2297
tp2298
bsS'l_{shell}'
p2299
g7
(g8
(I0
tp2300
g10
tp2301
Rp2302
(I1
(tg16
I00
S'\xaa"\xc4\xcc\xccL8@'
p2303
tp2304
bsS'r_m'
p2305
g7
(g8
(I0
tp2306
g10
tp2307
Rp2308
(I1
(tg16
I00
S'\xa5\x01\xc0\x9b\xcdR\xb0?'
p2309
tp2310
bsS'r_n'
p2311
g7
(g8
(I0
tp2312
g10
tp2313
Rp2314
(I1
(tg16
I00
S'\xf2\x08n&Vv\x9a?'
p2315
tp2316
bsS'l_{nose}'
p2317
g22
(g16
S'\x1b\xf6\x17\x00\x00\x00\xf0?'
p2318
tp2319
Rp2320
sS'A_{2h_{MLF}}'
p2321
g22
(g16
S'\x85\x8dZ\xf8\xaa9\xf9>'
p2322
tp2323
Rp2324
sS'\\alpha_{max,h}'
p2325
g22
(g16
S'{b\x07\x00\x00\x00\x04@'
p2326
tp2327
Rp2328
sS'\\sigma_{floor}'
p2329
g22
(g16
S'\x00\x00\x00\x00\x00\x00\xf0?'
p2330
tp2331
Rp2332
sS'W_{carry on}'
p2333
g7
(g8
(I0
tp2334
g10
tp2335
Rp2336
(I1
(tg16
I00
S'\x9cl\xf3\xff\xff\xff-@'
p2337
tp2338
bsS'f(\\lambda_{ht})'
p2339
g22
(g16
S'@S\xc30B\xa7d?'
p2340
tp2341
Rp2342
sS'D'
p2343
g7
(g8
(I0
tp2344
g10
tp2345
Rp2346
(I1
(I2
I1
tp2347
g16
I00
S"G\x10\x17qa@\xda@\x93\x17k\xc3\xbd'\xda@"
p2348
tp2349
bsS'E'
p2350
g22
(g16
S'\x00\x00\x00\x00\x00\x00\xf0?'
p2351
tp2352
Rp2353
sS'c_{d_{pv}}'
p2354
g22
(g16
S'\xf8~j\xbct\x93h?'
p2355
tp2356
Rp2357
sS'L_{total/wing}'
p2358
g22
(g16
S'=\xa3\xeb&1\x08\xf2?'
p2359
tp2360
Rp2361
sS'\\sigma_x'
p2362
g7
(g8
(I0
tp2363
g10
tp2364
Rp2365
(I1
(tg16
I00
S'S\xa9\x08,\x06E\x82A'
p2366
tp2367
bsS'W_{buoy}'
p2368
g7
(g8
(I0
tp2369
g10
tp2370
Rp2371
(I1
(I2
I1
tp2372
g16
I00
S'+\x92\x9f\\\xfb\xeb\x83@B\x1b\xab\x0f\xa7\xe3\x8f@'
p2373
tp2374
bsS'M'
p2375
g7
(g8
(I0
tp2376
g10
tp2377
Rp2378
(I1
(I2
I1
tp2379
g16
I00
S'\x9a\x99\x99\x99\x99\x99\xe9?\x9a\x99\x99\x99\x99\x99\xe9?'
p2380
tp2381
bsS'C_{L_h}'
p2382
g7
(g8
(I0
tp2383
g10
tp2384
Rp2385
(I1
(I2
I1
tp2386
g16
I00
S'6\xe4\xd4\xfb\xe2z\x84?\xb3\xd9\xe2\xb2\x93\x91\x8d?'
p2387
tp2388
bsS'AR'
p2389
g22
(g16
S'm-\x13u\x83\xc2,@'
p2390
tp2391
Rp2392
sS'h_{hold}'
p2393
g7
(g8
(I0
tp2394
g10
tp2395
Rp2396
(I1
(tg16
I00
S'\x02\xb5\x06\x00\x00\x00\xf0?'
p2397
tp2398
bsS'C_{d_w}'
p2399
g7
(g8
(I0
tp2400
g10
tp2401
Rp2402
(I1
(I2
I1
tp2403
g16
I00
S'\xe6s\x0b\xf5\xda\xd2\x8f?\xf6\x95\xcf\xb4\x15P\x8e?'
p2404
tp2405
bsS'\\mu'
p2406
g7
(g8
(I0
tp2407
g10
tp2408
Rp2409
(I1
(I2
I1
tp2410
g16
I00
S'_\x03\xa6\xe6\xc3\x0f\xee>\xdb7\xa7\xe6\xc3\x0f\xee>'
p2411
tp2412
bsS'e'
p2413
g22
(g16
S'\xf5y\x9d\x97\x92\x07\xee?'
p2414
tp2415
Rp2416
sS'W_{floor}'
p2417
g7
(g8
(I0
tp2418
g10
tp2419
Rp2420
(I1
(tg16
I00
S'D\xa1\xb3\x04\xeb\x99\xa2@'
p2421
tp2422
bsS'L_{v_{max}}'
p2423
g7
(g8
(I0
tp2424
g10
tp2425
Rp2426
(I1
(tg16
I00
S'\x05M\x0f\xc0\xfd\xa90A'
p2427
tp2428
bsS'V_{ht}'
p2429
g22
(g16
S':G\xdc\x8c\xffn\xe6?'
p2430
tp2431
Rp2432
sS'\\bar{c}_{ht}'
p2433
g7
(g8
(I0
tp2434
g10
tp2435
Rp2436
(I1
(tg16
I00
S'\xf8\x16\x86\x0b\x8d\xbd\xfe?'
p2437
tp2438
bsS'W_{f_{total}}'
p2439
g7
(g8
(I0
tp2440
g10
tp2441
Rp2442
(I1
(I1
tp2443
g16
I00
S'\xb23\xd8\xf3c\xa5\xdb@'
p2444
tp2445
bsS'\\sigma_{\\theta}'
p2446
g7
(g8
(I0
tp2447
g10
tp2448
Rp2449
(I1
(tg16
I00
S'\x89hVO\xfb\xa9\x98A'
p2450
tp2451
bsS'C_{D_{p_w}}'
p2452
g7
(g8
(I0
tp2453
g10
tp2454
Rp2455
(I1
(I2
I1
tp2456
g16
I00
S'K8U`]\x00z?\x98\xe1\xbb\xb5\x0b2z?'
p2457
tp2458
bsS'n_{VT}'
p2459
g22
(g16
S'\x91\xf7\x17\x00\x00\x00\xf0?'
p2460
tp2461
Rp2462
sS'n_{mg}'
p2463
g22
(g16
S'\x17\xf6\x17\x00\x00\x00\xf0?'
p2464
tp2465
Rp2466
sS'C_{L_{aw}}'
p2467
g7
(g8
(I0
tp2468
g10
tp2469
Rp2470
(I1
(I2
I1
tp2471
g16
I00
S'\xf9\x14L\xf1\x05\x81\x1a@\xf4\x14L\xf1\x05\x81\x1a@'
p2472
tp2473
bsS'W_{fuel_{wing}}'
p2474
g7
(g8
(I0
tp2475
g10
tp2476
Rp2477
(I1
(tg16
I00
S'\xedC\x8a]r\xe5\rA'
p2478
tp2479
bstp2480
Rp2481
stp2482
Rp2483
.